; Function Attrs: nounwind uwtable
define hidden void @evbuffer_set_parent_(ptr noundef captures(none) initializes((136, 144)) %0, ptr noundef %1) local_unnamed_addr #1 {
  %3 = getelementptr inbounds nuw i8, ptr %0, i64 56
  %4 = load ptr, ptr %3, align 8
  %.not = icmp eq ptr %4, null
  br i1 %.not, label %.thread, label %6

.thread:                                          ; preds = %2
  %5 = getelementptr inbounds nuw i8, ptr %0, i64 136
  store ptr %1, ptr %5, align 8
  br label %13

6:                                                ; preds = %2
  %7 = load ptr, ptr getelementptr inbounds nuw (i8, ptr @evthread_lock_fns_, i64 24), align 8
  %8 = tail call i32 %7(i32 noundef 0, ptr noundef nonnull %4) #16
  %.pr = load ptr, ptr %3, align 8
  %9 = getelementptr inbounds nuw i8, ptr %0, i64 136
  store ptr %1, ptr %9, align 8
  %.not7 = icmp eq ptr %.pr, null
  br i1 %.not7, label %13, label %10

10:                                               ; preds = %6
  %11 = load ptr, ptr getelementptr inbounds nuw (i8, ptr @evthread_lock_fns_, i64 32), align 8
  %12 = tail call i32 %11(i32 noundef 0, ptr noundef nonnull %.pr) #16
  br label %13

13:                                               ; preds = %.thread, %10, %6
  ret void
}